target datalayout = "e-m:e-p270:32:32-p271:32:32-p272:64:64-i64:64-i128:128-f80:128-n8:16:32:64-S128"
target triple = "x86_64-pc-linux-gnu"

@hf_btbnep_extension_flag = internal global i32 0, align 4
@hf_btbnep_extension_type = internal global i32 0, align 4
@hf_btbnep_extension_length = internal global i32 0, align 4

; Function Attrs: null_pointer_is_valid sspstrong uwtable
define internal i32 @dissect_extension(ptr noundef %0, ptr noundef %1, ptr noundef %2, i32 noundef %3) #0 {
  %5 = alloca ptr, align 8
  %6 = alloca ptr, align 8
  %7 = alloca ptr, align 8
  %8 = alloca i32, align 4
  %9 = alloca i8, align 1
  %10 = alloca i8, align 1
  %11 = alloca i16, align 2
  %12 = alloca i8, align 1
  store ptr %0, ptr %5, align 8
  store ptr %1, ptr %6, align 8
  store ptr %2, ptr %7, align 8
  store i32 %3, ptr %8, align 4
  call void @llvm.lifetime.start.p0(i64 1, ptr %9) #5
  call void @llvm.lifetime.start.p0(i64 1, ptr %10) #5
  call void @llvm.lifetime.start.p0(i64 2, ptr %11) #5
  call void @llvm.lifetime.start.p0(i64 1, ptr %12) #5
  %13 = load ptr, ptr %7, align 8
  %14 = load i32, ptr @hf_btbnep_extension_type, align 4
  %15 = load ptr, ptr %5, align 8
  %16 = load i32, ptr %8, align 4
  %17 = call ptr @proto_tree_add_item(ptr noundef %13, i32 noundef %14, ptr noundef %15, i32 noundef %16, i32 noundef 1, i32 noundef 0)
  %18 = load ptr, ptr %7, align 8
  %19 = load i32, ptr @hf_btbnep_extension_flag, align 4
  %20 = load ptr, ptr %5, align 8
  %21 = load i32, ptr %8, align 4
  %22 = call ptr @proto_tree_add_item(ptr noundef %18, i32 noundef %19, ptr noundef %20, i32 noundef %21, i32 noundef 1, i32 noundef 0)
  %23 = load ptr, ptr %5, align 8
  %24 = load i32, ptr %8, align 4
  %25 = call zeroext i8 @tvb_get_uint8(ptr noundef %23, i32 noundef %24)
  store i8 %25, ptr %12, align 1
  %26 = load i8, ptr %12, align 1
  %27 = zext i8 %26 to i32
  %28 = and i32 %27, 1
  %29 = trunc i32 %28 to i8
  store i8 %29, ptr %9, align 1
  %30 = load i8, ptr %12, align 1
  %31 = zext i8 %30 to i32
  %32 = ashr i32 %31, 1
  %33 = trunc i32 %32 to i8
  store i8 %33, ptr %10, align 1
  %34 = load i32, ptr %8, align 4
  %35 = add i32 %34, 1
  store i32 %35, ptr %8, align 4
  %36 = load ptr, ptr %7, align 8
  %37 = load i32, ptr @hf_btbnep_extension_length, align 4
  %38 = load ptr, ptr %5, align 8
  %39 = load i32, ptr %8, align 4
  %40 = call ptr @proto_tree_add_item(ptr noundef %36, i32 noundef %37, ptr noundef %38, i32 noundef %39, i32 noundef 1, i32 noundef 0)
  %41 = load ptr, ptr %5, align 8
  %42 = load i32, ptr %8, align 4
  %43 = call zeroext i16 @tvb_get_ntohs(ptr noundef %41, i32 noundef %42)
  store i16 %43, ptr %11, align 2
  %44 = load i32, ptr %8, align 4
  %45 = add i32 %44, 2
  store i32 %45, ptr %8, align 4
  %46 = load i8, ptr %10, align 1
  %47 = zext i8 %46 to i32
  %48 = icmp eq i32 %47, 0
  br i1 %48, label %49, label %55

49:                                               ; preds = %4
  %50 = load ptr, ptr %5, align 8
  %51 = load ptr, ptr %6, align 8
  %52 = load ptr, ptr %7, align 8
  %53 = load i32, ptr %8, align 4
  %54 = call i32 @dissect_control(ptr noundef %50, ptr noundef %51, ptr noundef %52, i32 noundef %53)
  store i32 %54, ptr %8, align 4
  br label %60

55:                                               ; preds = %4
  %56 = load i16, ptr %11, align 2
  %57 = zext i16 %56 to i32
  %58 = load i32, ptr %8, align 4
  %59 = add i32 %58, %57
  store i32 %59, ptr %8, align 4
  br label %60

60:                                               ; preds = %55, %49
  %61 = load ptr, ptr %6, align 8
  call void @increment_dissection_depth(ptr noundef %61)
  %62 = load i8, ptr %9, align 1
  %63 = icmp ne i8 %62, 0
  br i1 %63, label %64, label %70

64:                                               ; preds = %60
  %65 = load ptr, ptr %5, align 8
  %66 = load ptr, ptr %6, align 8
  %67 = load ptr, ptr %7, align 8
  %68 = load i32, ptr %8, align 4
  %69 = call i32 @dissect_extension(ptr noundef %65, ptr noundef %66, ptr noundef %67, i32 noundef %68)
  store i32 %69, ptr %8, align 4
  br label %70

70:                                               ; preds = %64, %60
  %71 = load ptr, ptr %6, align 8
  call void @decrement_dissection_depth(ptr noundef %71)
  %72 = load i32, ptr %8, align 4
  call void @llvm.lifetime.end.p0(i64 1, ptr %12) #5
  call void @llvm.lifetime.end.p0(i64 2, ptr %11) #5
  call void @llvm.lifetime.end.p0(i64 1, ptr %10) #5
  call void @llvm.lifetime.end.p0(i64 1, ptr %9) #5
  ret i32 %72
}