; Function Attrs: null_pointer_is_valid sspstrong uwtable
define internal fastcc i32 @dissect_extension(ptr noundef %0, ptr noundef %1, ptr noundef %2, i32 noundef %3) unnamed_addr #0 {
  %5 = load i32, ptr @hf_btbnep_extension_type, align 4
  %6 = tail call ptr @proto_tree_add_item(ptr noundef %2, i32 noundef %5, ptr noundef %0, i32 noundef %3, i32 noundef 1, i32 noundef 0)
  %7 = load i32, ptr @hf_btbnep_extension_flag, align 4
  %8 = tail call ptr @proto_tree_add_item(ptr noundef %2, i32 noundef %7, ptr noundef %0, i32 noundef %3, i32 noundef 1, i32 noundef 0)
  %9 = tail call zeroext i8 @tvb_get_uint8(ptr noundef %0, i32 noundef %3)
  %10 = and i8 %9, 1
  %11 = add i32 %3, 1
  %12 = load i32, ptr @hf_btbnep_extension_length, align 4
  %13 = tail call ptr @proto_tree_add_item(ptr noundef %2, i32 noundef %12, ptr noundef %0, i32 noundef %11, i32 noundef 1, i32 noundef 0)
  %14 = tail call zeroext i16 @tvb_get_ntohs(ptr noundef %0, i32 noundef %11)
  %15 = add i32 %3, 3
  %16 = icmp ult i8 %9, 2
  br i1 %16, label %17, label %19

17:                                               ; preds = %4
  %18 = tail call fastcc i32 @dissect_control(ptr noundef %0, ptr noundef %1, ptr noundef %2, i32 noundef %15)
  br label %22

19:                                               ; preds = %4
  %20 = zext i16 %14 to i32
  %21 = add i32 %15, %20
  br label %22

22:                                               ; preds = %19, %17
  %.0 = phi i32 [ %18, %17 ], [ %21, %19 ]
  tail call void @increment_dissection_depth(ptr noundef %1)
  %.not = icmp eq i8 %10, 0
  br i1 %.not, label %25, label %23

23:                                               ; preds = %22
  %24 = tail call fastcc i32 @dissect_extension(ptr noundef %0, ptr noundef %1, ptr noundef %2, i32 noundef %.0)
  br label %25

25:                                               ; preds = %23, %22
  %.1 = phi i32 [ %24, %23 ], [ %.0, %22 ]
  tail call void @decrement_dissection_depth(ptr noundef %1)
  ret i32 %.1
}